target datalayout = "e-m:e-p270:32:32-p271:32:32-p272:64:64-i64:64-i128:128-f80:128-n8:16:32:64-S128"
target triple = "x86_64-pc-linux-gnu"

%struct.GVertex = type { %struct._GtsVertex, i32 }
%struct._GtsVertex = type { %struct._GtsPoint, ptr }
%struct._GtsPoint = type { %struct._GtsObject, double, double, double }
%struct._GtsObject = type { ptr, ptr, i32 }
%struct._GtsTriangle = type { %struct._GtsObject, ptr, ptr, ptr }
%struct.fstate = type { ptr, ptr, ptr }
%struct.GFace = type { %struct._GtsFace, i32 }
%struct._GtsFace = type { %struct._GtsTriangle, ptr }
%struct.ninfo = type { i32, ptr }

; Function Attrs: nounwind uwtable
define internal i32 @addFace(ptr noundef %0, ptr noundef %1) #0 {
  %3 = alloca ptr, align 8
  %4 = alloca ptr, align 8
  %5 = alloca ptr, align 8
  %6 = alloca ptr, align 8
  %7 = alloca i32, align 4
  %8 = alloca i32, align 4
  %9 = alloca ptr, align 8
  %10 = alloca ptr, align 8
  %11 = alloca %struct.ninfo, align 8
  %12 = alloca ptr, align 8
  %13 = alloca ptr, align 8
  %14 = alloca ptr, align 8
  store ptr %0, ptr %3, align 8, !tbaa !25
  store ptr %1, ptr %4, align 8, !tbaa !25
  call void @llvm.lifetime.start.p0(i64 8, ptr %5) #12
  %15 = load ptr, ptr %3, align 8, !tbaa !25
  store ptr %15, ptr %5, align 8, !tbaa !25
  call void @llvm.lifetime.start.p0(i64 8, ptr %6) #12
  %16 = load ptr, ptr %4, align 8, !tbaa !25
  store ptr %16, ptr %6, align 8, !tbaa !25
  call void @llvm.lifetime.start.p0(i64 4, ptr %7) #12
  call void @llvm.lifetime.start.p0(i64 4, ptr %8) #12
  %17 = load ptr, ptr %5, align 8, !tbaa !25
  %18 = getelementptr inbounds nuw %struct.GFace, ptr %17, i32 0, i32 1
  %19 = load i32, ptr %18, align 8, !tbaa !74
  store i32 %19, ptr %8, align 4, !tbaa !8
  call void @llvm.lifetime.start.p0(i64 8, ptr %9) #12
  %20 = load ptr, ptr %6, align 8, !tbaa !25
  %21 = getelementptr inbounds nuw %struct.fstate, ptr %20, i32 0, i32 1
  %22 = load ptr, ptr %21, align 8, !tbaa !65
  %23 = load i32, ptr %8, align 4, !tbaa !8
  %24 = mul nsw i32 3, %23
  %25 = sext i32 %24 to i64
  %26 = getelementptr inbounds i32, ptr %22, i64 %25
  store ptr %26, ptr %9, align 8, !tbaa !10
  call void @llvm.lifetime.start.p0(i64 8, ptr %10) #12
  %27 = load ptr, ptr %6, align 8, !tbaa !25
  %28 = getelementptr inbounds nuw %struct.fstate, ptr %27, i32 0, i32 2
  %29 = load ptr, ptr %28, align 8, !tbaa !67
  %30 = load i32, ptr %8, align 4, !tbaa !8
  %31 = mul nsw i32 3, %30
  %32 = sext i32 %31 to i64
  %33 = getelementptr inbounds i32, ptr %29, i64 %32
  store ptr %33, ptr %10, align 8, !tbaa !10
  call void @llvm.lifetime.start.p0(i64 16, ptr %11) #12
  call void @llvm.lifetime.start.p0(i64 8, ptr %12) #12
  call void @llvm.lifetime.start.p0(i64 8, ptr %13) #12
  call void @llvm.lifetime.start.p0(i64 8, ptr %14) #12
  %34 = load ptr, ptr %5, align 8, !tbaa !25
  %35 = getelementptr inbounds nuw %struct.GFace, ptr %34, i32 0, i32 0
  %36 = getelementptr inbounds nuw %struct._GtsFace, ptr %35, i32 0, i32 0
  call void @gts_triangle_vertices(ptr noundef %36, ptr noundef %12, ptr noundef %13, ptr noundef %14)
  %37 = load ptr, ptr %12, align 8, !tbaa !52
  %38 = getelementptr inbounds nuw %struct.GVertex, ptr %37, i32 0, i32 1
  %39 = load i32, ptr %38, align 8, !tbaa !34
  %40 = load ptr, ptr %9, align 8, !tbaa !10
  %41 = getelementptr inbounds nuw i32, ptr %40, i32 1
  store ptr %41, ptr %9, align 8, !tbaa !10
  store i32 %39, ptr %40, align 4, !tbaa !8
  %42 = load ptr, ptr %13, align 8, !tbaa !52
  %43 = getelementptr inbounds nuw %struct.GVertex, ptr %42, i32 0, i32 1
  %44 = load i32, ptr %43, align 8, !tbaa !34
  %45 = load ptr, ptr %9, align 8, !tbaa !10
  %46 = getelementptr inbounds nuw i32, ptr %45, i32 1
  store ptr %46, ptr %9, align 8, !tbaa !10
  store i32 %44, ptr %45, align 4, !tbaa !8
  %47 = load ptr, ptr %14, align 8, !tbaa !52
  %48 = getelementptr inbounds nuw %struct.GVertex, ptr %47, i32 0, i32 1
  %49 = load i32, ptr %48, align 8, !tbaa !34
  %50 = load ptr, ptr %9, align 8, !tbaa !10
  %51 = getelementptr inbounds nuw i32, ptr %50, i32 1
  store ptr %51, ptr %9, align 8, !tbaa !10
  store i32 %49, ptr %50, align 4, !tbaa !8
  %52 = getelementptr inbounds nuw %struct.ninfo, ptr %11, i32 0, i32 0
  store i32 0, ptr %52, align 8, !tbaa !17
  %53 = load ptr, ptr %10, align 8, !tbaa !10
  %54 = getelementptr inbounds nuw %struct.ninfo, ptr %11, i32 0, i32 1
  store ptr %53, ptr %54, align 8, !tbaa !19
  %55 = load ptr, ptr %5, align 8, !tbaa !25
  call void @gts_face_foreach_neighbor(ptr noundef %55, ptr noundef null, ptr noundef @addNeighbor, ptr noundef %11)
  %56 = getelementptr inbounds nuw %struct.ninfo, ptr %11, i32 0, i32 0
  %57 = load i32, ptr %56, align 8, !tbaa !17
  store i32 %57, ptr %7, align 4, !tbaa !8
  br label %58

58:                                               ; preds = %66, %2
  %59 = load i32, ptr %7, align 4, !tbaa !8
  %60 = icmp slt i32 %59, 3
  br i1 %60, label %61, label %69

61:                                               ; preds = %58
  %62 = load ptr, ptr %10, align 8, !tbaa !10
  %63 = load i32, ptr %7, align 4, !tbaa !8
  %64 = sext i32 %63 to i64
  %65 = getelementptr inbounds i32, ptr %62, i64 %64
  store i32 -1, ptr %65, align 4, !tbaa !8
  br label %66

66:                                               ; preds = %61
  %67 = load i32, ptr %7, align 4, !tbaa !8
  %68 = add nsw i32 %67, 1
  store i32 %68, ptr %7, align 4, !tbaa !8
  br label %58, !llvm.loop !77

69:                                               ; preds = %58
  call void @llvm.lifetime.end.p0(i64 8, ptr %14) #12
  call void @llvm.lifetime.end.p0(i64 8, ptr %13) #12
  call void @llvm.lifetime.end.p0(i64 8, ptr %12) #12
  call void @llvm.lifetime.end.p0(i64 16, ptr %11) #12
  call void @llvm.lifetime.end.p0(i64 8, ptr %10) #12
  call void @llvm.lifetime.end.p0(i64 8, ptr %9) #12
  call void @llvm.lifetime.end.p0(i64 4, ptr %8) #12
  call void @llvm.lifetime.end.p0(i64 4, ptr %7) #12
  call void @llvm.lifetime.end.p0(i64 8, ptr %6) #12
  call void @llvm.lifetime.end.p0(i64 8, ptr %5) #12
  ret i32 0
}