; Function Attrs: nounwind uwtable
define internal noundef i32 @addFace(ptr noundef %0, ptr noundef readonly captures(none) %1) #0 {
  %3 = alloca %struct.ninfo, align 8
  %4 = alloca ptr, align 8
  %5 = alloca ptr, align 8
  %6 = alloca ptr, align 8
  %7 = getelementptr inbounds nuw i8, ptr %0, i64 56
  %8 = load i32, ptr %7, align 8, !tbaa !63
  %9 = getelementptr inbounds nuw i8, ptr %1, i64 8
  %10 = load ptr, ptr %9, align 8, !tbaa !53
  %11 = mul i32 %8, 3
  %12 = sext i32 %11 to i64
  %13 = getelementptr inbounds i32, ptr %10, i64 %12
  %14 = getelementptr inbounds nuw i8, ptr %1, i64 16
  %15 = load ptr, ptr %14, align 8, !tbaa !56
  %16 = getelementptr inbounds i32, ptr %15, i64 %12
  call void @llvm.lifetime.start.p0(i64 16, ptr nonnull %3) #19
  call void @llvm.lifetime.start.p0(i64 8, ptr nonnull %4) #19
  call void @llvm.lifetime.start.p0(i64 8, ptr nonnull %5) #19
  call void @llvm.lifetime.start.p0(i64 8, ptr nonnull %6) #19
  call void @gts_triangle_vertices(ptr noundef %0, ptr noundef nonnull %4, ptr noundef nonnull %5, ptr noundef nonnull %6) #19
  %17 = load ptr, ptr %4, align 8, !tbaa !42
  %18 = getelementptr inbounds nuw i8, ptr %17, i64 56
  %19 = load i32, ptr %18, align 8, !tbaa !23
  %20 = getelementptr inbounds nuw i8, ptr %13, i64 4
  store i32 %19, ptr %13, align 4, !tbaa !10
  %21 = load ptr, ptr %5, align 8, !tbaa !42
  %22 = getelementptr inbounds nuw i8, ptr %21, i64 56
  %23 = load i32, ptr %22, align 8, !tbaa !23
  %24 = getelementptr inbounds nuw i8, ptr %13, i64 8
  store i32 %23, ptr %20, align 4, !tbaa !10
  %25 = load ptr, ptr %6, align 8, !tbaa !42
  %26 = getelementptr inbounds nuw i8, ptr %25, i64 56
  %27 = load i32, ptr %26, align 8, !tbaa !23
  store i32 %27, ptr %24, align 4, !tbaa !10
  store i32 0, ptr %3, align 8, !tbaa !13
  %28 = getelementptr inbounds nuw i8, ptr %3, i64 8
  store ptr %16, ptr %28, align 8, !tbaa !16
  call void @gts_face_foreach_neighbor(ptr noundef %0, ptr noundef null, ptr noundef nonnull @addNeighbor, ptr noundef nonnull %3) #19
  %29 = load i32, ptr %3, align 8, !tbaa !13
  %30 = icmp slt i32 %29, 3
  br i1 %30, label %.lr.ph.preheader, label %._crit_edge

.lr.ph.preheader:                                 ; preds = %2
  %31 = sext i32 %29 to i64
  %32 = add nsw i64 %31, %12
  %33 = shl nsw i64 %32, 2
  %scevgep = getelementptr i8, ptr %15, i64 %33
  %34 = sub i32 2, %29
  %35 = zext i32 %34 to i64
  %36 = shl nuw nsw i64 %35, 2
  %37 = add nuw nsw i64 %36, 4
  call void @llvm.memset.p0.i64(ptr noundef nonnull align 4 dereferenceable(1) %scevgep, i8 -1, i64 %37, i1 false), !tbaa !10
  br label %._crit_edge

._crit_edge:                                      ; preds = %.lr.ph.preheader, %2
  call void @llvm.lifetime.end.p0(i64 8, ptr nonnull %6) #19
  call void @llvm.lifetime.end.p0(i64 8, ptr nonnull %5) #19
  call void @llvm.lifetime.end.p0(i64 8, ptr nonnull %4) #19
  call void @llvm.lifetime.end.p0(i64 16, ptr nonnull %3) #19
  ret i32 0
}